target datalayout = "e-m:e-p270:32:32-p271:32:32-p272:64:64-i64:64-i128:128-f80:128-n8:16:32:64-S128"
target triple = "x86_64-pc-linux-gnu"

%struct.PACKET = type { ptr, i64 }

@smbuf = internal global [256 x i8] zeroinitializer, align 16
@.str.25 = private unnamed_addr constant [29 x i8] c"../openssl/test/packettest.c\00", align 1
@.str.34 = private unnamed_addr constant [38 x i8] c"PACKET_buf_init(&pkt, smbuf, BUF_LEN)\00", align 1
@.str.39 = private unnamed_addr constant [32 x i8] c"PACKET_buf_init(&pkt, smbuf, 4)\00", align 1
@.str.40 = private unnamed_addr constant [29 x i8] c"PACKET_equal(&pkt, smbuf, 4)\00", align 1
@.str.41 = private unnamed_addr constant [33 x i8] c"PACKET_equal(&pkt, smbuf + 1, 4)\00", align 1
@.str.42 = private unnamed_addr constant [35 x i8] c"PACKET_equal(&pkt, smbuf, BUF_LEN)\00", align 1
@.str.43 = private unnamed_addr constant [39 x i8] c"PACKET_equal(&pkt, smbuf, BUF_LEN - 1)\00", align 1
@.str.44 = private unnamed_addr constant [39 x i8] c"PACKET_equal(&pkt, smbuf, BUF_LEN + 1)\00", align 1
@.str.45 = private unnamed_addr constant [29 x i8] c"PACKET_equal(&pkt, smbuf, 0)\00", align 1

; Function Attrs: inlinehint nounwind uwtable
define internal i64 @PACKET_remaining(ptr noundef %0) #4 {
  %2 = alloca ptr, align 8
  store ptr %0, ptr %2, align 8, !tbaa !33
  %3 = load ptr, ptr %2, align 8, !tbaa !33
  %4 = getelementptr inbounds nuw %struct.PACKET, ptr %3, i32 0, i32 1
  %5 = load i64, ptr %4, align 8, !tbaa !31
  ret i64 %5
}

; Function Attrs: inlinehint nounwind uwtable
define internal i32 @PACKET_equal(ptr noundef %0, ptr noundef %1, i64 noundef %2) #4 {
  %4 = alloca i32, align 4
  %5 = alloca ptr, align 8
  %6 = alloca ptr, align 8
  %7 = alloca i64, align 8
  store ptr %0, ptr %5, align 8, !tbaa !33
  store ptr %1, ptr %6, align 8, !tbaa !33
  store i64 %2, ptr %7, align 8, !tbaa !11
  %8 = load ptr, ptr %5, align 8, !tbaa !33
  %9 = call i64 @PACKET_remaining(ptr noundef %8)
  %10 = load i64, ptr %7, align 8, !tbaa !11
  %11 = icmp ne i64 %9, %10
  br i1 %11, label %12, label %13

12:                                               ; preds = %3
  store i32 0, ptr %4, align 4
  br label %22

13:                                               ; preds = %3
  %14 = load ptr, ptr %5, align 8, !tbaa !33
  %15 = getelementptr inbounds nuw %struct.PACKET, ptr %14, i32 0, i32 0
  %16 = load ptr, ptr %15, align 8, !tbaa !29
  %17 = load ptr, ptr %6, align 8, !tbaa !33
  %18 = load i64, ptr %7, align 8, !tbaa !11
  %19 = call i32 @CRYPTO_memcmp(ptr noundef %16, ptr noundef %17, i64 noundef %18)
  %20 = icmp eq i32 %19, 0
  %21 = zext i1 %20 to i32
  store i32 %21, ptr %4, align 4
  br label %22

22:                                               ; preds = %13, %12
  %23 = load i32, ptr %4, align 4
  ret i32 %23
}

; Function Attrs: inlinehint nounwind uwtable
define internal i32 @PACKET_buf_init(ptr noundef %0, ptr noundef %1, i64 noundef %2) #4 {
  %4 = alloca i32, align 4
  %5 = alloca ptr, align 8
  %6 = alloca ptr, align 8
  %7 = alloca i64, align 8
  store ptr %0, ptr %5, align 8, !tbaa !33
  store ptr %1, ptr %6, align 8, !tbaa !13
  store i64 %2, ptr %7, align 8, !tbaa !11
  %8 = load i64, ptr %7, align 8, !tbaa !11
  %9 = icmp ugt i64 %8, 9223372036854775807
  br i1 %9, label %10, label %11

10:                                               ; preds = %3
  store i32 0, ptr %4, align 4
  br label %18

11:                                               ; preds = %3
  %12 = load ptr, ptr %6, align 8, !tbaa !13
  %13 = load ptr, ptr %5, align 8, !tbaa !33
  %14 = getelementptr inbounds nuw %struct.PACKET, ptr %13, i32 0, i32 0
  store ptr %12, ptr %14, align 8, !tbaa !29
  %15 = load i64, ptr %7, align 8, !tbaa !11
  %16 = load ptr, ptr %5, align 8, !tbaa !33
  %17 = getelementptr inbounds nuw %struct.PACKET, ptr %16, i32 0, i32 1
  store i64 %15, ptr %17, align 8, !tbaa !31
  store i32 1, ptr %4, align 4
  br label %18

18:                                               ; preds = %11, %10
  %19 = load i32, ptr %4, align 4
  ret i32 %19
}

; Function Attrs: nounwind uwtable
define internal i32 @test_PACKET_equal() #0 {
  %1 = alloca i32, align 4
  %2 = alloca %struct.PACKET, align 8
  %3 = alloca i32, align 4
  call void @llvm.lifetime.start.p0(i64 16, ptr %2) #7
  %4 = call i32 @PACKET_buf_init(ptr noundef %2, ptr noundef @smbuf, i64 noundef 4)
  %5 = icmp ne i32 %4, 0
  %6 = zext i1 %5 to i32
  %7 = call i32 @test_true(ptr noundef @.str.25, i32 noundef 335, ptr noundef @.str.39, i32 noundef %6)
  %8 = icmp ne i32 %7, 0
  br i1 %8, label %9, label %51

9:                                                ; preds = %0
  %10 = call i32 @PACKET_equal(ptr noundef %2, ptr noundef @smbuf, i64 noundef 4)
  %11 = icmp ne i32 %10, 0
  %12 = zext i1 %11 to i32
  %13 = call i32 @test_true(ptr noundef @.str.25, i32 noundef 336, ptr noundef @.str.40, i32 noundef %12)
  %14 = icmp ne i32 %13, 0
  br i1 %14, label %15, label %51

15:                                               ; preds = %9
  %16 = call i32 @PACKET_equal(ptr noundef %2, ptr noundef getelementptr inbounds (i8, ptr @smbuf, i64 1), i64 noundef 4)
  %17 = icmp ne i32 %16, 0
  %18 = zext i1 %17 to i32
  %19 = call i32 @test_false(ptr noundef @.str.25, i32 noundef 337, ptr noundef @.str.41, i32 noundef %18)
  %20 = icmp ne i32 %19, 0
  br i1 %20, label %21, label %51

21:                                               ; preds = %15
  %22 = call i32 @PACKET_buf_init(ptr noundef %2, ptr noundef @smbuf, i64 noundef 255)
  %23 = icmp ne i32 %22, 0
  %24 = zext i1 %23 to i32
  %25 = call i32 @test_true(ptr noundef @.str.25, i32 noundef 338, ptr noundef @.str.34, i32 noundef %24)
  %26 = icmp ne i32 %25, 0
  br i1 %26, label %27, label %51

27:                                               ; preds = %21
  %28 = call i32 @PACKET_equal(ptr noundef %2, ptr noundef @smbuf, i64 noundef 255)
  %29 = icmp ne i32 %28, 0
  %30 = zext i1 %29 to i32
  %31 = call i32 @test_true(ptr noundef @.str.25, i32 noundef 339, ptr noundef @.str.42, i32 noundef %30)
  %32 = icmp ne i32 %31, 0
  br i1 %32, label %33, label %51

33:                                               ; preds = %27
  %34 = call i32 @PACKET_equal(ptr noundef %2, ptr noundef @smbuf, i64 noundef 254)
  %35 = icmp ne i32 %34, 0
  %36 = zext i1 %35 to i32
  %37 = call i32 @test_false(ptr noundef @.str.25, i32 noundef 340, ptr noundef @.str.43, i32 noundef %36)
  %38 = icmp ne i32 %37, 0
  br i1 %38, label %39, label %51

39:                                               ; preds = %33
  %40 = call i32 @PACKET_equal(ptr noundef %2, ptr noundef @smbuf, i64 noundef 256)
  %41 = icmp ne i32 %40, 0
  %42 = zext i1 %41 to i32
  %43 = call i32 @test_false(ptr noundef @.str.25, i32 noundef 341, ptr noundef @.str.44, i32 noundef %42)
  %44 = icmp ne i32 %43, 0
  br i1 %44, label %45, label %51

45:                                               ; preds = %39
  %46 = call i32 @PACKET_equal(ptr noundef %2, ptr noundef @smbuf, i64 noundef 0)
  %47 = icmp ne i32 %46, 0
  %48 = zext i1 %47 to i32
  %49 = call i32 @test_false(ptr noundef @.str.25, i32 noundef 342, ptr noundef @.str.45, i32 noundef %48)
  %50 = icmp ne i32 %49, 0
  br i1 %50, label %52, label %51

51:                                               ; preds = %45, %39, %33, %27, %21, %15, %9, %0
  store i32 0, ptr %1, align 4
  store i32 1, ptr %3, align 4
  br label %53

52:                                               ; preds = %45
  store i32 1, ptr %1, align 4
  store i32 1, ptr %3, align 4
  br label %53

53:                                               ; preds = %52, %51
  call void @llvm.lifetime.end.p0(i64 16, ptr %2) #7
  %54 = load i32, ptr %1, align 4
  ret i32 %54
}