; Function Attrs: nounwind uwtable
define internal range(i32 0, 2) i32 @test_PACKET_equal() #0 {
  %1 = tail call i32 @test_true(ptr noundef nonnull @.str.25, i32 noundef 335, ptr noundef nonnull @.str.39, i32 noundef 1) #6
  %.not = icmp eq i32 %1, 0
  br i1 %.not, label %19, label %PACKET_equal.exit

PACKET_equal.exit:                                ; preds = %0
  %2 = tail call i32 @CRYPTO_memcmp(ptr noundef nonnull @smbuf, ptr noundef nonnull @smbuf, i64 noundef 4) #6
  %3 = icmp eq i32 %2, 0
  %4 = zext i1 %3 to i32
  %5 = tail call i32 @test_true(ptr noundef nonnull @.str.25, i32 noundef 336, ptr noundef nonnull @.str.40, i32 noundef %4) #6
  %.not1 = icmp eq i32 %5, 0
  br i1 %.not1, label %19, label %PACKET_equal.exit21

PACKET_equal.exit21:                              ; preds = %PACKET_equal.exit
  %6 = tail call i32 @CRYPTO_memcmp(ptr noundef nonnull @smbuf, ptr noundef nonnull getelementptr inbounds nuw (i8, ptr @smbuf, i64 1), i64 noundef 4) #6
  %7 = icmp eq i32 %6, 0
  %8 = zext i1 %7 to i32
  %9 = tail call i32 @test_false(ptr noundef nonnull @.str.25, i32 noundef 337, ptr noundef nonnull @.str.41, i32 noundef %8) #6
  %.not2 = icmp eq i32 %9, 0
  br i1 %.not2, label %19, label %10

10:                                               ; preds = %PACKET_equal.exit21
  %11 = tail call i32 @test_true(ptr noundef nonnull @.str.25, i32 noundef 338, ptr noundef nonnull @.str.34, i32 noundef 1) #6
  %.not3 = icmp eq i32 %11, 0
  br i1 %.not3, label %19, label %PACKET_equal.exit25

PACKET_equal.exit25:                              ; preds = %10
  %12 = tail call i32 @CRYPTO_memcmp(ptr noundef nonnull @smbuf, ptr noundef nonnull @smbuf, i64 noundef 255) #6
  %13 = icmp eq i32 %12, 0
  %14 = zext i1 %13 to i32
  %15 = tail call i32 @test_true(ptr noundef nonnull @.str.25, i32 noundef 339, ptr noundef nonnull @.str.42, i32 noundef %14) #6
  %.not4 = icmp eq i32 %15, 0
  br i1 %.not4, label %19, label %PACKET_equal.exit28

PACKET_equal.exit28:                              ; preds = %PACKET_equal.exit25
  %16 = tail call i32 @test_false(ptr noundef nonnull @.str.25, i32 noundef 340, ptr noundef nonnull @.str.43, i32 noundef 0) #6
  %.not5 = icmp eq i32 %16, 0
  br i1 %.not5, label %19, label %PACKET_equal.exit31

PACKET_equal.exit31:                              ; preds = %PACKET_equal.exit28
  %17 = tail call i32 @test_false(ptr noundef nonnull @.str.25, i32 noundef 341, ptr noundef nonnull @.str.44, i32 noundef 0) #6
  %.not6 = icmp eq i32 %17, 0
  br i1 %.not6, label %19, label %PACKET_equal.exit34

PACKET_equal.exit34:                              ; preds = %PACKET_equal.exit31
  %18 = tail call i32 @test_false(ptr noundef nonnull @.str.25, i32 noundef 342, ptr noundef nonnull @.str.45, i32 noundef 0) #6
  %.not7 = icmp ne i32 %18, 0
  %spec.select = zext i1 %.not7 to i32
  br label %19

19:                                               ; preds = %PACKET_equal.exit34, %0, %PACKET_equal.exit, %PACKET_equal.exit21, %10, %PACKET_equal.exit25, %PACKET_equal.exit28, %PACKET_equal.exit31
  %.0 = phi i32 [ 0, %PACKET_equal.exit31 ], [ 0, %PACKET_equal.exit28 ], [ 0, %PACKET_equal.exit25 ], [ 0, %10 ], [ 0, %PACKET_equal.exit21 ], [ 0, %PACKET_equal.exit ], [ 0, %0 ], [ %spec.select, %PACKET_equal.exit34 ]
  ret i32 %.0
}